MPASM 5.64                       PROJETO.ASM   11-29-2015  17:54:02         PAGE  1


LOC  OBJECT CODE     LINE SOURCE TEXT
  VALUE

                      00001 
                      00002 ; PIC16F877A Configuration Bit Settings
                      00003 
                      00004 ; ASM source line config statements
                      00005 
                      00006 #include "p16F877A.inc"
                      00001         LIST
                      00002 
                      00003 ;==========================================================================
                      00004 ; Build date : Oct 21 2015
                      00005 ;  MPASM PIC16F877A processor include
                      00006 ; 
                      00007 ;  (c) Copyright 1999-2015 Microchip Technology, All rights reserved
                      00008 ;==========================================================================
                      00009 
                      00567         LIST
                      00007 
                      00008 #define BANCO0 BCF STATUS, RP0
                      00009 #define BANCO1 BSF STATUS, RP0
                      00010 
                      00011 
                      00012 ; CONFIG
                      00013 ; __config 0xFFBA
2007   3FBA           00014  __CONFIG _FOSC_HS & _WDTE_OFF & _PWRTE_OFF & _BOREN_OFF & _LVP_ON & _CPD_OFF & _WRT_OFF & _CP_OFF
                      00015 
                      00016     CBLOCK 20h                  ;Criação dos registradores (nossos) a partir da posição 20h da memória
  00000020            00017     contador
  00000021            00018     contador2
  00000022            00019     contador_segundo
  00000023            00020     leitura_analogica    
  00000024            00021     tmp_var
  00000025            00022     VALOR_DEBITO    
  00000026            00023     TEMPO_LUZ_ALERTA
  00000027            00024     TEMPO_SOM_ALERTA
                      00025     ENDC
                      00026 
                      00027 
                      00028     ORG 0
                      00029 
0000   1683           00030     BANCO1
                      00031     
                      00032     ; Habilitado R1 para output para simular BUZZER
0001   30FC           00033     movlw b'11111100' ;  Habilita saida no pino RB0
Message[302]: Register in operand not in bank 0.  Ensure that bank bits are correct.
0002   0086           00034     movwf TRISB
                      00035     
0003   30E7           00036     movlw b'11100111' ;  Habilita saida no pino RC3 e RC4
Message[302]: Register in operand not in bank 0.  Ensure that bank bits are correct.
0004   0087           00037     movwf TRISC
                      00038     
                      00039     ;MOVLW b'00000011'
0005   3000           00040     movlw 0
Message[302]: Register in operand not in bank 0.  Ensure that bank bits are correct.
MPASM 5.64                       PROJETO.ASM   11-29-2015  17:54:02         PAGE  2


LOC  OBJECT CODE     LINE SOURCE TEXT
  VALUE

0006   0088           00041     MOVWF TRISD             ;PORTA D É SAÍDA
                      00042 
0007   30E8           00043     MOVLW b'11101000'       ;Quarto bit é configurado como 0 para não estragar a porta D (I/O)
Message[302]: Register in operand not in bank 0.  Ensure that bank bits are correct.
0008   0089           00044     MOVWF TRISE             ;Bits 0 e 1 da porta E são saídas
                      00045     
0009   300E           00046     MOVLW b'00001110'       ;Pinos configurados como digitais
Message[302]: Register in operand not in bank 0.  Ensure that bank bits are correct.
000A   009F           00047     MOVWF ADCON1
                      00048 
000B   1283           00049     BANCO0
                      00050 
                      00051     ; Configura timer para uso em funcao de 1s de atraso
000C   3031           00052     movlw b'00110001' ; Timer 1 com clock interno e prescaler 8
000D   0090           00053     movwf T1CON
                      00054       
000E   2???           00055     CALL    inicia_lcd
                      00056     
                      00057     ;FIM DA CONFIGURACAO
                      00058     
                      00059     
                      00060     
                      00061     
Warning[207]: Found label after column 1. (REINICIA_CANCELA)
000F                  00062     REINICIA_CANCELA
                      00063     
000F   2???           00064         call REINICIA
                      00065 
                      00066         ; AGUARDA ATÉ VEICULO ATIVAR O PRIMEIRO SENSOR E SALVA VALOR DA PORTA NO ACUMULADOR
0010   2???           00067         CALL ESPERA_POR_VEICULO
                      00068 
                      00069         ; Aguarda alguns segundos até o "veiculo" se acomodar ^^
0011   3008           00070         movlw 8
0012   2???           00071         call espera_w_x_500ms
                      00072         
                      00073         ; Lê novamente o sinal analogico (apos o sinal estabilizar, pois serao colocados pesos)
0013   2???           00074         call le_sinal_analogico
                      00075         
                      00076         ; PEGA VALOR DEVIDO E COLOCA NA VARIAVEL "VALOR_DEBITO"
0014   2???           00077         CALL PEGA_VALOR_DEBITO
                      00078         ;movlw .0
                      00079         ;movwf VALOR_DEBITO
                      00080         
                      00081         ; AGUARDA PELO PAGAMENTO DO DEBITO
0015   2???           00082         CALL AGUARDA_PAGAMENTO
                      00083         
                      00084         
0016   3004           00085         movlw 4
0017   2???           00086         call espera_w_x_500ms
                      00087         
                      00088         ; Abre cancela      
0018   1509           00089         bsf PORTE, RE2
                      00090         ; Fim
MPASM 5.64                       PROJETO.ASM   11-29-2015  17:54:02         PAGE  3


LOC  OBJECT CODE     LINE SOURCE TEXT
  VALUE

                      00091         
Warning[207]: Found label after column 1. (aguarda_passagem_carro)
0019                  00092         aguarda_passagem_carro
0019   3002           00093             movlw 2
001A   2???           00094             call espera_w_x_500ms
                      00095             
                      00096             ; DEBUG
001B   305A           00097             MOVLW   'Z'
001C   2???           00098             CALL escreve_dado_lcd
                      00099             
001D   2???           00100             call le_sinal_analogico
                      00101             ; fica em loop ate valor voltar para 0
001E   3000           00102             movlw 0
001F   02A3           00103             subwf leitura_analogica, 1
0020   1D03           00104             btfss STATUS,Z
0021   2???           00105             goto APC_INC_ALERTAS
0022   2???           00106             goto APC_PULA
                      00107         
Warning[207]: Found label after column 1. (APC_INC_ALERTAS)
0023                  00108             APC_INC_ALERTAS
0023   2???           00109             call ALERTAS_STEP
0024   2???           00110             goto aguarda_passagem_carro
                      00111         
Warning[207]: Found label after column 1. (APC_PULA)
0025                  00112         APC_PULA
                      00113         
0025   2???           00114         call RESETA_ALERTAS
                      00115         
                      00116         ; Aguarda 4s
0026   3008           00117         movlw 8
0027   2???           00118         call espera_w_x_500ms
                      00119             
0028   2???           00120     goto REINICIA_CANCELA
                      00121 
                      00122 ;-------------------------------------------------------------------------------
                      00123     
Warning[207]: Found label after column 1. (REINICIA)
0029                  00124     REINICIA
0029   2???           00125         call RESETA_ALERTAS
002A   0008           00126     return
                      00127 
Warning[207]: Found label after column 1. (ESPERA_POR_VEICULO)
002B                  00128     ESPERA_POR_VEICULO
Warning[207]: Found label after column 1. (EPV_LOOP)
002B                  00129         EPV_LOOP
002B   2???           00130             call le_sinal_analogico     
                      00131             
                      00132             ; Compara valor lido = 0, fica em loop ate valor mudar
002C   3000           00133             movlw 0
002D   02A3           00134             subwf leitura_analogica, 1
002E   1903           00135             btfsc STATUS,Z
002F   2???           00136             goto EPV_LOOP
                      00137                         
MPASM 5.64                       PROJETO.ASM   11-29-2015  17:54:02         PAGE  4


LOC  OBJECT CODE     LINE SOURCE TEXT
  VALUE

0030   0008           00138     return
                      00139     
                      00140     
Warning[207]: Found label after column 1. (PEGA_VALOR_DEBITO)
0031                  00141     PEGA_VALOR_DEBITO
                      00142         
0031   1FA3           00143         btfss leitura_analogica, 7
0032   2???           00144         goto PULA_VALOR_4_EIXOS
                      00145             ; Caso valor esteja setado
0033   300A           00146             movlw .10
0034   00A5           00147             movwf VALOR_DEBITO
                      00148             ; ver esquema das mensagens
0035   3034           00149             MOVLW   '4'
0036   2???           00150             CALL escreve_dado_lcd  
0037   2???           00151             goto PULA_FIM_VALOR_DEBITO
Warning[207]: Found label after column 1. (PULA_VALOR_4_EIXOS)
0038                  00152         PULA_VALOR_4_EIXOS
                      00153         
0038   1F23           00154         btfss leitura_analogica, 6
0039   2???           00155         goto PULA_VALOR_3_EIXOS
                      00156             ; Caso valor esteja setado
003A   3007           00157             movlw 7
003B   00A5           00158             movwf VALOR_DEBITO
                      00159             ; ver esquema das mensagens
003C   3033           00160             MOVLW   '3'
003D   2???           00161             CALL escreve_dado_lcd
003E   2???           00162             goto PULA_FIM_VALOR_DEBITO
Warning[207]: Found label after column 1. (PULA_VALOR_3_EIXOS)
003F                  00163         PULA_VALOR_3_EIXOS
                      00164         
003F   1EA3           00165         btfss leitura_analogica, 5
0040   2???           00166         goto PULA_VALOR_CARRO
                      00167             ; Caso valor esteja setado
0041   3005           00168             movlw 5
0042   00A5           00169             movwf VALOR_DEBITO
                      00170             ; ver esquema das mensagens
0043   3043           00171             MOVLW   'C'
0044   2???           00172             CALL escreve_dado_lcd
0045   2???           00173             goto PULA_FIM_VALOR_DEBITO
Warning[207]: Found label after column 1. (PULA_VALOR_CARRO)
0046                  00174         PULA_VALOR_CARRO
                      00175         
0046   3000           00176             movlw 0
0047   00A5           00177             movwf VALOR_DEBITO
                      00178             ; ver esquema das mensagens
0048   304D           00179             MOVLW   'M'
0049   2???           00180             CALL escreve_dado_lcd
                      00181                 
Warning[207]: Found label after column 1. (PULA_FIM_VALOR_DEBITO)
004A                  00182         PULA_FIM_VALOR_DEBITO
                      00183         ;CALL LCD_LIMPA_TELA
                      00184         ;CALL LCD_ENVIA_FRASE
004A   0008           00185     return
MPASM 5.64                       PROJETO.ASM   11-29-2015  17:54:02         PAGE  5


LOC  OBJECT CODE     LINE SOURCE TEXT
  VALUE

                      00186     
Warning[207]: Found label after column 1. (RESETA_ALERTAS)
004B                  00187     RESETA_ALERTAS
004B   301E           00188         movlw .30
004C   00A6           00189         movwf TEMPO_LUZ_ALERTA
004D   3014           00190         movlw .20
004E   00A7           00191         movwf TEMPO_SOM_ALERTA
004F   1006           00192         bcf PORTB, RB0  
                      00193         ; ??? aonde esta ligado o som de alerta ???
0050   1086           00194         bcf PORTB, RB1
0051   0008           00195     return
                      00196     
Warning[207]: Found label after column 1. (ALERTAS_STEP)
0052                  00197     ALERTAS_STEP
                      00198     
                      00199         ; Checa se TEMPO_LUZ_ALERTA = 0
0052   3000           00200         movlw 0
0053   02A6           00201         subwf TEMPO_LUZ_ALERTA, 1
                      00202         
0054   1903           00203         btfsc STATUS,Z
0055   2???           00204         goto TOGGLE_LUZ_ALERTA ; Se for "toggleia" luz
                      00205         
Message[305]: Using default destination of 1 (file).
0056   03A6           00206         DECF TEMPO_LUZ_ALERTA ; Senão decrementa variavel retorna (som só liga 20s apos luz ligar)
0057   0008           00207         return
                      00208 
Warning[207]: Found label after column 1. (TOGGLE_LUZ_ALERTA)
0058                  00209         TOGGLE_LUZ_ALERTA
0058   1806           00210             btfsc PORTB, RB0
0059   2???           00211             goto DESLIGA_LUZ_ALERTA ; Caso luz esteja liga, pula para desligar luz
                      00212             
005A   1406           00213             bsf PORTB, RB0 ; Liga luz
005B   2???           00214             goto PULA_LUZ_ALERTA
                      00215             
Warning[207]: Found label after column 1. (DESLIGA_LUZ_ALERTA)
005C                  00216             DESLIGA_LUZ_ALERTA
005C   1006           00217             bcf PORTB, RB0 ; Liga luz
                      00218         
Warning[207]: Found label after column 1. (PULA_LUZ_ALERTA)
005D                  00219         PULA_LUZ_ALERTA
                      00220         
                      00221         ; Checa se TEMPO_SOM_ALERTA = 0
005D   3000           00222         movlw 0
005E   02A7           00223         subwf TEMPO_SOM_ALERTA, 1
                      00224         
005F   1903           00225         btfsc STATUS,Z
0060   2???           00226         goto TOGGLE_SOM_ALERTA ; Se for "toggleia" som
                      00227         
Message[305]: Using default destination of 1 (file).
0061   03A7           00228         DECF TEMPO_SOM_ALERTA ; Senão decrementa variavel e pula
0062   2???           00229         goto PULA_SOM_ALERTA
                      00230 
Warning[207]: Found label after column 1. (TOGGLE_SOM_ALERTA)
MPASM 5.64                       PROJETO.ASM   11-29-2015  17:54:02         PAGE  6


LOC  OBJECT CODE     LINE SOURCE TEXT
  VALUE

0063                  00231         TOGGLE_SOM_ALERTA
0063   1C86           00232             btfss PORTB, RB1
0064   1486           00233             bsf PORTB, RB1 ; Liga som :D    
Warning[207]: Found label after column 1. (PULA_SOM_ALERTA)
0065                  00234         PULA_SOM_ALERTA
                      00235         
0065   0008           00236     return 
                      00237     
                      00238     ;------------------------------------------------------
                      00239     ; AGUARDA PAGAMENTO DO DEBITO
Warning[207]: Found label after column 1. (AGUARDA_PAGAMENTO)
0066                  00240     AGUARDA_PAGAMENTO
                      00241     
                      00242             ; SE VALOR_DEBITO FOR 0 RETORNA IMEDIATAMENTE
0066   3000           00243             movlw 0
0067   02A5           00244             subwf VALOR_DEBITO, 1
0068   1903           00245             btfsc STATUS,Z
0069   0008           00246             return
                      00247             
                      00248             ; Habilita RN (Recebimento de notas) - Isso é utilizado ?
                      00249             ;SETB P1.6
                      00250             
006A   2???           00251             CALL RESETA_ALERTAS
Warning[207]: Found label after column 1. (AP_LOOP)
006B                  00252             AP_LOOP
                      00253                 
                      00254                 ; 1s entre as operações
006B   3002           00255                 movlw 2
006C   2???           00256                 call espera_w_x_500ms
                      00257                 
                      00258                 ; AQUI PRECISA ENVIAR MENSAGEM
                      00259                 
                      00260                 
                      00261                 ; Limpa flags
006D   1003           00262                 bcf STATUS, C
006E   1103           00263                 bcf STATUS, Z
                      00264                 
                      00265                 
006F   3057           00266                 MOVLW   'W'
0070   2???           00267                 CALL escreve_dado_lcd
                      00268                 
                      00269                 ;Habilita leitura nos pinos necessarios da porta d
0071   1683           00270                 BANCO1
0072   3003           00271                     movlw b'00000011'
Message[302]: Register in operand not in bank 0.  Ensure that bank bits are correct.
0073   0088           00272                     MOVWF TRISD
0074   1283           00273                 BANCO0
                      00274                 
                      00275                 ; Checa input de nota de R$ 2
0075   1C08           00276                 btfss PORTD, RD0
0076   2???           00277                 goto AP_PULA_NOTA_2
                      00278 
0077   3002           00279                     movlw 2
MPASM 5.64                       PROJETO.ASM   11-29-2015  17:54:02         PAGE  7


LOC  OBJECT CODE     LINE SOURCE TEXT
  VALUE

0078   02A5           00280                     subwf VALOR_DEBITO, 1
                      00281                     
0079   2???           00282                     goto AP_FORA_NOTA
                      00283                 
Warning[207]: Found label after column 1. (AP_PULA_NOTA_2)
007A                  00284                 AP_PULA_NOTA_2
                      00285                 
                      00286                 ; Checa input de nota de R$ 5
007A   1C88           00287                 btfss PORTD, RD1
007B   2???           00288                 goto AP_PULA_NOTA_5
                      00289 
007C   3005           00290                     movlw 5
007D   02A5           00291                     subwf VALOR_DEBITO, 1
                      00292                     
007E   2???           00293                     goto AP_FORA_NOTA
                      00294                 
Warning[207]: Found label after column 1. (AP_PULA_NOTA_5)
007F                  00295                 AP_PULA_NOTA_5
                      00296                 
                      00297                 ; Retorna porta D para o estado padrao
007F   1683           00298                 BANCO1
0080   3000           00299                     movlw 0
Message[302]: Register in operand not in bank 0.  Ensure that bank bits are correct.
0081   0088           00300                     MOVWF TRISD
0082   1283           00301                 BANCO0
                      00302                 
                      00303                 ; Usuario não interagiu com o sistema
0083   2???           00304                 call ALERTAS_STEP               
                      00305                 
                      00306                 ; DEBUG
0084   3058           00307                 MOVLW   'X'
0085   2???           00308                 CALL escreve_dado_lcd
0086   2???           00309                 goto AP_LOOP
                      00310                 
                      00311                 ; Usuario interagiu com o sistema
Warning[207]: Found label after column 1. (AP_FORA_NOTA)
0087                  00312                 AP_FORA_NOTA            
                      00313         
                      00314                 ; Retorna porta D para o estado padrao
0087   1683           00315                 BANCO1
0088   3000           00316                     movlw 0
Message[302]: Register in operand not in bank 0.  Ensure that bank bits are correct.
0089   0088           00317                     MOVWF TRISD
008A   1283           00318                 BANCO0
                      00319                 
008B   2???           00320                 call RESETA_ALERTAS
                      00321                 
008C   3059           00322                 MOVLW   'Y'
008D   2???           00323                 CALL escreve_dado_lcd
                      00324                 
                      00325                 
008E   3051           00326                     MOVLW   'Q'
008F   2???           00327                 CALL escreve_dado_lcd
MPASM 5.64                       PROJETO.ASM   11-29-2015  17:54:02         PAGE  8


LOC  OBJECT CODE     LINE SOURCE TEXT
  VALUE

                      00328                 ; ORDEM DAS INSTRUÇÕES É IMPORTANTE
                      00329                 ; NUMERO NEGATIVO seta tanto o C como o Z
                      00330                 
                      00331                 ; Caso resultado o resultado de negativo, precisamos dar
                      00332                 ; troco para o motorista
0090   1803           00333                 btfsc STATUS,C
0091   2???           00334                 goto AP_TROCO
                      00335                 
0092   3054           00336                 MOVLW   'T'
0093   2???           00337                 CALL escreve_dado_lcd
                      00338                 
                      00339                 ; Caso resultado da subtração seja 0, retorna normalmente
0094   1903           00340                 btfsc STATUS,Z
0095   0008           00341                 return
                      00342                 
0096   3052           00343                 MOVLW   'R'
0097   2???           00344                 CALL escreve_dado_lcd
                      00345 
                      00346             
0098   2???           00347             goto AP_LOOP
                      00348                                     
Warning[207]: Found label after column 1. (AP_TROCO)
0099                  00349             AP_TROCO
                      00350             
                      00351             ;CONVERTE PARA VALOR ABSOLUTO
0099   0825           00352             movfw VALOR_DEBITO
009A   00A4           00353             movwf tmp_var
009B   30FF           00354             movlw .255
                      00355             
009C   00A5           00356             movwf VALOR_DEBITO
009D   0824           00357             movfw tmp_var
009E   02A5           00358             subwf VALOR_DEBITO, 1
009F   0AA5           00359             incf VALOR_DEBITO, 1
                      00360             ; FIM 
                      00361             
Warning[207]: Found label after column 1. (APT_LOOP)
00A0                  00362             APT_LOOP
                      00363             
                      00364             ; REPOEM MOEDA
00A0   1587           00365                 bsf PORTC, RC3     
00A1   3002           00366                 movlw 2
00A2   2???           00367                 call espera_w_x_500ms
                      00368 
                      00369                 ; FECHA SM
00A3   1187           00370                 bcf PORTC, RC3     
00A4   3002           00371                 movlw 2
00A5   2???           00372                 call espera_w_x_500ms       
                      00373             ; FIM
                      00374             
                      00375             ; LIBERA MOEDA
00A6   1607           00376                 bsf PORTC, RC4     
00A7   3002           00377                 movlw 2
00A8   2???           00378                 call espera_w_x_500ms
MPASM 5.64                       PROJETO.ASM   11-29-2015  17:54:02         PAGE  9


LOC  OBJECT CODE     LINE SOURCE TEXT
  VALUE

                      00379 
                      00380                 ; FECHA SM
00A9   1207           00381                 bcf PORTC, RC4     
00AA   3002           00382                 movlw 2
00AB   2???           00383                 call espera_w_x_500ms       
                      00384             ; FIM
                      00385             
                      00386             
00AC   3001           00387             movlw 1
00AD   02A5           00388             subwf VALOR_DEBITO, 1
                      00389             
                      00390             ; Checa se o troco ja foi dado (VALOR_DEBITO = 0)       
00AE   1D03           00391             btfss STATUS,Z
00AF   2???           00392             goto APT_LOOP
                      00393             
                      00394             
00B0   0008           00395     return
                      00396         
00B1   2???           00397     GOTO $                       ;Trava programa
                      00398 
                      00399     
00B2                  00400 le_sinal_analogico
00B2   1683           00401     BANCO1
00B3   3000           00402         MOVLW b'00000000'       ;Pinos configurados como digitais
Message[302]: Register in operand not in bank 0.  Ensure that bank bits are correct.
00B4   009F           00403         MOVWF ADCON1
00B5   1283           00404     BANCO0
00B6   300D           00405     MOVLW b'00001101'       ;Configura adcon0
00B7   009F           00406     movwf ADCON0
                      00407  
Warning[207]: Found label after column 1. (aguarda_conversao)
00B8                  00408     aguarda_conversao
00B8   191F           00409         btfsc  ADCON0, 2
00B9   2???           00410     goto aguarda_conversao
                      00411 
00BA   081E           00412     movfw ADRESH
00BB   00A3           00413     movwf leitura_analogica
                      00414     
                      00415     ;Restaura valor (conflito LCD)
00BC   1683           00416     BANCO1
00BD   300E           00417         MOVLW b'00001110'       ;Pinos configurados como digitais
Message[302]: Register in operand not in bank 0.  Ensure that bank bits are correct.
00BE   009F           00418         MOVWF ADCON1
00BF   1283           00419     BANCO0
00C0   3000           00420     MOVLW b'00000000'
00C1   009F           00421     movwf ADCON0
00C2   0008           00422  return
                      00423     
                      00424  
                      00425  
                      00426  
00C3                  00427 espera_w_x_500ms    
00C3   00A2           00428     movwf contador_segundo
MPASM 5.64                       PROJETO.ASM   11-29-2015  17:54:02         PAGE 10


LOC  OBJECT CODE     LINE SOURCE TEXT
  VALUE

                      00429 
00C4   300B           00430     movlw 0Bh   ; Valor para 62500 contagens (500ms)
00C5   008E           00431     movwf TMR1L ; 2^16 - 62500
00C6   30DC           00432     movlw 0DCh
00C7   008F           00433     movwf TMR1H
                      00434 
00C8                  00435 aguarda_estouro
00C8   1C0C           00436        btfss PIR1, TMR1IF ; Espera timer0 estourar
00C9   2???           00437        goto aguarda_estouro
00CA   300B           00438        movlw 0Bh   ; Valor para 62500 contagens (500ms)
00CB   008E           00439        movwf TMR1L ; 2^16 - 62500
00CC   30DC           00440        movlw 0DCh
00CD   008F           00441        movwf TMR1H
00CE   100C           00442        bcf PIR1, TMR1IF ; Limpa flag de estouro
Message[305]: Using default destination of 1 (file).
00CF   0BA2           00443        decfsz contador_segundo ; Aguarda 20 ocorrencias
00D0   2???           00444        goto aguarda_estouro
00D1   0008           00445  return
                      00446     
                      00447  
                      00448  
                      00449  
                      00450  
00D2                  00451 escreve_dado_lcd
00D2   1409           00452     BSF     PORTE, RE0          ;Define dado no LCD (RS=1)
00D3   0088           00453     MOVWF   PORTD
00D4   1489           00454     BSF     PORTE, RE1          ;Ativa ENABLE do LCD
00D5   1089           00455     BCF     PORTE, RE1          ;Destativa ENABLE do LCD
00D6   2???           00456     CALL    atrasa_lcd
00D7   0008           00457     RETURN
                      00458 
                      00459     
                      00460     
                      00461     
00D8                  00462 escreve_comando_lcd
00D8   1009           00463     BCF     PORTE, RE0          ;Define dado no LCD (RS=0)
00D9   0088           00464     MOVWF   PORTD
00DA   1489           00465     BSF     PORTE, RE1          ;Ativa ENABLE do LCD
00DB   1089           00466     BCF     PORTE, RE1          ;Destativa ENABLE do LCD
00DC   2???           00467     CALL    atrasa_lcd
00DD   0008           00468     RETURN
                      00469 
                      00470     
                      00471     
                      00472     
00DE                  00473 atrasa_lcd
00DE   3026           00474     MOVLW 26                     ; 8 clocks ( pipe-line nova)
00DF   00A0           00475     MOVWF contador               ; 4 clocks
00E0                  00476 ret_atrasa_lcd
Message[305]: Using default destination of 1 (file).
00E0   0BA0           00477     DECFSZ contador              ; 8 clocks (pipe-line nova)
00E1   2???           00478     GOTO ret_atrasa_lcd          ; 4 clocks
00E2   0008           00479     RETURN
MPASM 5.64                       PROJETO.ASM   11-29-2015  17:54:02         PAGE 11


LOC  OBJECT CODE     LINE SOURCE TEXT
  VALUE

                      00480 
                      00481 
                      00482     
                      00483     
                      00484     
00E3                  00485 atrasa_limpa_lcd
00E3   3040           00486     MOVLW 40
00E4   00A1           00487     MOVWF contador2
00E5                  00488 ret_atrasa_limpa_lcd
00E5   2???           00489     CALL atrasa_lcd
Message[305]: Using default destination of 1 (file).
00E6   0BA1           00490     DECFSZ contador2
00E7   2???           00491     GOTO ret_atrasa_limpa_lcd
00E8   0008           00492     RETURN
                      00493     
                      00494     
00E9                  00495 limpa_lcd
00E9   3001           00496     MOVLW   01h
00EA   2???           00497     CALL escreve_comando_lcd
00EB   2???           00498     CALL atrasa_limpa_lcd
00EC   0008           00499     return
                      00500     
                      00501     
00ED                  00502 inicia_lcd
00ED   3038           00503     MOVLW   38h
00EE   2???           00504     CALL escreve_comando_lcd
                      00505 
00EF   3038           00506     MOVLW   38h
00F0   2???           00507     CALL escreve_comando_lcd
                      00508 
00F1   3038           00509     MOVLW   38h
00F2   2???           00510     CALL escreve_comando_lcd
                      00511 
00F3   3006           00512     MOVLW   06h
00F4   2???           00513     CALL escreve_comando_lcd
                      00514 
00F5   300C           00515     MOVLW   0Ch
00F6   2???           00516     CALL escreve_comando_lcd
                      00517 
00F7   3001           00518     MOVLW   01h
00F8   2???           00519     CALL escreve_comando_lcd
00F9   2???           00520     CALL atrasa_limpa_lcd
                      00521 
00FA   0008           00522     RETURN
                      00523     
3FBA                  00524  END
MPASM 5.64                       PROJETO.ASM   11-29-2015  17:54:02         PAGE 12


SYMBOL TABLE
  LABEL                             VALUE 

ACKDT                             00000005
ACKEN                             00000004
ACKSTAT                           00000006
ADCON0                            0000001F
ADCON1                            0000009F
ADCS0                             00000006
ADCS1                             00000007
ADCS2                             00000006
ADDEN                             00000003
ADFM                              00000007
ADIE                              00000006
ADIF                              00000006
ADON                              00000000
ADRESH                            0000001E
ADRESL                            0000009E
AGUARDA_PAGAMENTO                 00000066
ALERTAS_STEP                      00000052
APC_INC_ALERTAS                   00000023
APC_PULA                          00000025
APT_LOOP                          000000A0
AP_FORA_NOTA                      00000087
AP_LOOP                           0000006B
AP_PULA_NOTA_2                    0000007A
AP_PULA_NOTA_5                    0000007F
AP_TROCO                          00000099
BANCO0                            BCF STATUS, RP0
BANCO1                            BSF STATUS, RP0
BCLIE                             00000003
BCLIF                             00000003
BF                                00000000
BRGH                              00000002
C                                 00000000
C1INV                             00000004
C1OUT                             00000006
C2INV                             00000005
C2OUT                             00000007
CCP1CON                           00000017
CCP1IE                            00000002
CCP1IF                            00000002
CCP1M0                            00000000
CCP1M1                            00000001
CCP1M2                            00000002
CCP1M3                            00000003
CCP1X                             00000005
CCP1Y                             00000004
CCP2CON                           0000001D
CCP2IE                            00000000
CCP2IF                            00000000
CCP2M0                            00000000
CCP2M1                            00000001
CCP2M2                            00000002
CCP2M3                            00000003
CCP2X                             00000005
MPASM 5.64                       PROJETO.ASM   11-29-2015  17:54:02         PAGE 13


SYMBOL TABLE
  LABEL                             VALUE 

CCP2Y                             00000004
CCPR1                             00000015
CCPR1H                            00000016
CCPR1L                            00000015
CCPR2                             0000001B
CCPR2H                            0000001C
CCPR2L                            0000001B
CHS0                              00000003
CHS1                              00000004
CHS2                              00000005
CIS                               00000003
CKE                               00000006
CKP                               00000004
CM0                               00000000
CM1                               00000001
CM2                               00000002
CMCON                             0000009C
CMIE                              00000006
CMIF                              00000006
CREN                              00000004
CSRC                              00000007
CVR0                              00000000
CVR1                              00000001
CVR2                              00000002
CVR3                              00000003
CVRCON                            0000009D
CVREN                             00000007
CVROE                             00000006
CVRR                              00000005
D                                 00000005
DATA_ADDRESS                      00000005
DC                                00000001
DESLIGA_LUZ_ALERTA                0000005C
D_A                               00000005
D_NOT_A                           00000005
EEADR                             0000010D
EEADRH                            0000010F
EECON1                            0000018C
EECON2                            0000018D
EEDATA                            0000010C
EEDATH                            0000010E
EEIE                              00000004
EEIF                              00000004
EEPGD                             00000007
EPV_LOOP                          0000002B
ESPERA_POR_VEICULO                0000002B
F                                 00000001
FERR                              00000002
FSR                               00000004
GCEN                              00000007
GIE                               00000007
GO                                00000002
GO_DONE                           00000002
MPASM 5.64                       PROJETO.ASM   11-29-2015  17:54:02         PAGE 14


SYMBOL TABLE
  LABEL                             VALUE 

GO_NOT_DONE                       00000002
I2C_DATA                          00000005
I2C_READ                          00000002
I2C_START                         00000003
I2C_STOP                          00000004
IBF                               00000007
IBOV                              00000005
INDF                              00000000
INTCON                            0000000B
INTE                              00000004
INTEDG                            00000006
INTF                              00000001
IRP                               00000007
NOT_A                             00000005
NOT_ADDRESS                       00000005
NOT_BO                            00000000
NOT_BOR                           00000000
NOT_DONE                          00000002
NOT_PD                            00000003
NOT_POR                           00000001
NOT_RBPU                          00000007
NOT_RC8                           00000006
NOT_T1SYNC                        00000002
NOT_TO                            00000004
NOT_TX8                           00000006
NOT_W                             00000002
NOT_WRITE                         00000002
OBF                               00000006
OERR                              00000001
OPTION_REG                        00000081
P                                 00000004
PCFG0                             00000000
PCFG1                             00000001
PCFG2                             00000002
PCFG3                             00000003
PCL                               00000002
PCLATH                            0000000A
PCON                              0000008E
PEGA_VALOR_DEBITO                 00000031
PEIE                              00000006
PEN                               00000002
PIE1                              0000008C
PIE2                              0000008D
PIR1                              0000000C
PIR2                              0000000D
PORTA                             00000005
PORTB                             00000006
PORTC                             00000007
PORTD                             00000008
PORTE                             00000009
PR2                               00000092
PS0                               00000000
PS1                               00000001
MPASM 5.64                       PROJETO.ASM   11-29-2015  17:54:02         PAGE 15


SYMBOL TABLE
  LABEL                             VALUE 

PS2                               00000002
PSA                               00000003
PSPIE                             00000007
PSPIF                             00000007
PSPMODE                           00000004
PULA_FIM_VALOR_DEBITO             0000004A
PULA_LUZ_ALERTA                   0000005D
PULA_SOM_ALERTA                   00000065
PULA_VALOR_3_EIXOS                0000003F
PULA_VALOR_4_EIXOS                00000038
PULA_VALOR_CARRO                  00000046
R                                 00000002
RA0                               00000000
RA1                               00000001
RA2                               00000002
RA3                               00000003
RA4                               00000004
RA5                               00000005
RB0                               00000000
RB1                               00000001
RB2                               00000002
RB3                               00000003
RB4                               00000004
RB5                               00000005
RB6                               00000006
RB7                               00000007
RBIE                              00000003
RBIF                              00000000
RC0                               00000000
RC1                               00000001
RC2                               00000002
RC3                               00000003
RC4                               00000004
RC5                               00000005
RC6                               00000006
RC7                               00000007
RC8_9                             00000006
RC9                               00000006
RCD8                              00000000
RCEN                              00000003
RCIE                              00000005
RCIF                              00000005
RCREG                             0000001A
RCSTA                             00000018
RD                                00000000
RD0                               00000000
RD1                               00000001
RD2                               00000002
RD3                               00000003
RD4                               00000004
RD5                               00000005
RD6                               00000006
RD7                               00000007
MPASM 5.64                       PROJETO.ASM   11-29-2015  17:54:02         PAGE 16


SYMBOL TABLE
  LABEL                             VALUE 

RE0                               00000000
RE1                               00000001
RE2                               00000002
READ_WRITE                        00000002
REINICIA                          00000029
REINICIA_CANCELA                  0000000F
RESETA_ALERTAS                    0000004B
RP0                               00000005
RP1                               00000006
RSEN                              00000001
RX9                               00000006
RX9D                              00000000
R_NOT_W                           00000002
R_W                               00000002
S                                 00000003
SEN                               00000000
SMP                               00000007
SPBRG                             00000099
SPEN                              00000007
SREN                              00000005
SSPADD                            00000093
SSPBUF                            00000013
SSPCON                            00000014
SSPCON2                           00000091
SSPEN                             00000005
SSPIE                             00000003
SSPIF                             00000003
SSPM0                             00000000
SSPM1                             00000001
SSPM2                             00000002
SSPM3                             00000003
SSPOV                             00000006
SSPSTAT                           00000094
STATUS                            00000003
SYNC                              00000004
T0CS                              00000005
T0IE                              00000005
T0IF                              00000002
T0SE                              00000004
T1CKPS0                           00000004
T1CKPS1                           00000005
T1CON                             00000010
T1INSYNC                          00000002
T1OSCEN                           00000003
T1SYNC                            00000002
T2CKPS0                           00000000
T2CKPS1                           00000001
T2CON                             00000012
TEMPO_LUZ_ALERTA                  00000026
TEMPO_SOM_ALERTA                  00000027
TMR0                              00000001
TMR0IE                            00000005
TMR0IF                            00000002
MPASM 5.64                       PROJETO.ASM   11-29-2015  17:54:02         PAGE 17


SYMBOL TABLE
  LABEL                             VALUE 

TMR1                              0000000E
TMR1CS                            00000001
TMR1H                             0000000F
TMR1IE                            00000000
TMR1IF                            00000000
TMR1L                             0000000E
TMR1ON                            00000000
TMR2                              00000011
TMR2IE                            00000001
TMR2IF                            00000001
TMR2ON                            00000002
TOGGLE_LUZ_ALERTA                 00000058
TOGGLE_SOM_ALERTA                 00000063
TOUTPS0                           00000003
TOUTPS1                           00000004
TOUTPS2                           00000005
TOUTPS3                           00000006
TRISA                             00000085
TRISA0                            00000000
TRISA1                            00000001
TRISA2                            00000002
TRISA3                            00000003
TRISA4                            00000004
TRISA5                            00000005
TRISB                             00000086
TRISB0                            00000000
TRISB1                            00000001
TRISB2                            00000002
TRISB3                            00000003
TRISB4                            00000004
TRISB5                            00000005
TRISB6                            00000006
TRISB7                            00000007
TRISC                             00000087
TRISC0                            00000000
TRISC1                            00000001
TRISC2                            00000002
TRISC3                            00000003
TRISC4                            00000004
TRISC5                            00000005
TRISC6                            00000006
TRISC7                            00000007
TRISD                             00000088
TRISD0                            00000000
TRISD1                            00000001
TRISD2                            00000002
TRISD3                            00000003
TRISD4                            00000004
TRISD5                            00000005
TRISD6                            00000006
TRISD7                            00000007
TRISE                             00000089
TRISE0                            00000000
MPASM 5.64                       PROJETO.ASM   11-29-2015  17:54:02         PAGE 18


SYMBOL TABLE
  LABEL                             VALUE 

TRISE1                            00000001
TRISE2                            00000002
TRMT                              00000001
TX8_9                             00000006
TX9                               00000006
TX9D                              00000000
TXD8                              00000000
TXEN                              00000005
TXIE                              00000004
TXIF                              00000004
TXREG                             00000019
TXSTA                             00000098
UA                                00000001
VALOR_DEBITO                      00000025
W                                 00000000
WCOL                              00000007
WR                                00000001
WREN                              00000002
WRERR                             00000003
Z                                 00000002
_.org_0_00B1                      000000B1
_BODEN_OFF                        00003FBF
_BODEN_ON                         00003FFF
_BOREN_OFF                        00003FBF
_BOREN_ON                         00003FFF
_CONFIG                           00002007
_CPD_OFF                          00003FFF
_CPD_ON                           00003EFF
_CP_ALL                           00001FFF
_CP_OFF                           00003FFF
_CP_ON                            00001FFF
_DEBUG_OFF                        00003FFF
_DEBUG_ON                         000037FF
_DEVID1                           00002006
_FOSC_EXTRC                       00003FFF
_FOSC_HS                          00003FFE
_FOSC_LP                          00003FFC
_FOSC_XT                          00003FFD
_HS_OSC                           00003FFE
_IDLOC0                           00002000
_IDLOC1                           00002001
_IDLOC2                           00002002
_IDLOC3                           00002003
_LP_OSC                           00003FFC
_LVP_OFF                          00003F7F
_LVP_ON                           00003FFF
_PWRTE_OFF                        00003FFF
_PWRTE_ON                         00003FF7
_RC_OSC                           00003FFF
_WDTE_OFF                         00003FFB
_WDTE_ON                          00003FFF
_WDT_OFF                          00003FFB
_WDT_ON                           00003FFF
MPASM 5.64                       PROJETO.ASM   11-29-2015  17:54:02         PAGE 19


SYMBOL TABLE
  LABEL                             VALUE 

_WRT_1FOURTH                      00003BFF
_WRT_256                          00003DFF
_WRT_HALF                         000039FF
_WRT_OFF                          00003FFF
_XT_OSC                           00003FFD
__16F877A                         00000001
aguarda_conversao                 000000B8
aguarda_estouro                   000000C8
aguarda_passagem_carro            00000019
atrasa_lcd                        000000DE
atrasa_limpa_lcd                  000000E3
contador                          00000020
contador2                         00000021
contador_segundo                  00000022
escreve_comando_lcd               000000D8
escreve_dado_lcd                  000000D2
espera_w_x_500ms                  000000C3
inicia_lcd                        000000ED
le_sinal_analogico                000000B2
leitura_analogica                 00000023
limpa_lcd                         000000E9
ret_atrasa_lcd                    000000E0
ret_atrasa_limpa_lcd              000000E5
tmp_var                           00000024

Errors   :     0
Warnings :    27 reported,     0 suppressed
Messages :    15 reported,     0 suppressed

